target datalayout = "e-m:e-p270:32:32-p271:32:32-p272:64:64-i64:64-i128:128-f80:128-n8:16:32:64-S128"
target triple = "x86_64-pc-linux-gnu"

@wal_sync_method = dso_local global i32 1, align 4
@.str.14 = private unnamed_addr constant [7 x i8] c"xlog.c\00", align 1
@enableFsync = external global i8, align 1
@.str.20 = private unnamed_addr constant [29 x i8] c"could not open file \22%s\22: %m\00", align 1
@__func__.XLogFileInit = private unnamed_addr constant [13 x i8] c"XLogFileInit\00", align 1
@.str.78 = private unnamed_addr constant [35 x i8] c"unrecognized \22wal_sync_method\22: %d\00", align 1
@io_direct_flags = external global i32, align 4
@MyBackendType = external global i32, align 4
@__func__.get_sync_bit = private unnamed_addr constant [13 x i8] c"get_sync_bit\00", align 1

; Function Attrs: nounwind uwtable
define internal i32 @get_sync_bit(i32 noundef %0) #0 {
  %2 = alloca i32, align 4
  %3 = alloca i32, align 4
  %4 = alloca i32, align 4
  %5 = alloca i32, align 4
  store i32 %0, ptr %3, align 4
  call void @llvm.lifetime.start.p0(i64 4, ptr %4) #16
  store i32 0, ptr %4, align 4
  %6 = load i32, ptr @io_direct_flags, align 4
  %7 = and i32 %6, 2
  %8 = icmp ne i32 %7, 0
  br i1 %8, label %9, label %13

9:                                                ; preds = %1
  %10 = load i32, ptr @MyBackendType, align 4
  %11 = icmp eq i32 %10, 13
  br i1 %11, label %13, label %12

12:                                               ; preds = %9
  store i32 16384, ptr %4, align 4
  br label %13

13:                                               ; preds = %12, %9, %1
  %14 = load i8, ptr @enableFsync, align 1, !range !4, !noundef !5
  %15 = trunc i8 %14 to i1
  br i1 %15, label %18, label %16

16:                                               ; preds = %13
  %17 = load i32, ptr %4, align 4
  store i32 %17, ptr %2, align 4
  store i32 1, ptr %5, align 4
  br label %40

18:                                               ; preds = %13
  %19 = load i32, ptr %3, align 4
  switch i32 %19, label %28 [
    i32 0, label %20
    i32 3, label %20
    i32 1, label %20
    i32 2, label %22
    i32 4, label %25
  ]

20:                                               ; preds = %18, %18, %18
  %21 = load i32, ptr %4, align 4
  store i32 %21, ptr %2, align 4
  store i32 1, ptr %5, align 4
  br label %40

22:                                               ; preds = %18
  %23 = load i32, ptr %4, align 4
  %24 = or i32 1052672, %23
  store i32 %24, ptr %2, align 4
  store i32 1, ptr %5, align 4
  br label %40

25:                                               ; preds = %18
  %26 = load i32, ptr %4, align 4
  %27 = or i32 4096, %26
  store i32 %27, ptr %2, align 4
  store i32 1, ptr %5, align 4
  br label %40

28:                                               ; preds = %18
  br label %29

29:                                               ; preds = %28
  br i1 true, label %30, label %32

30:                                               ; preds = %29
  %31 = call zeroext i1 @errstart_cold(i32 noundef 21, ptr noundef null) #17
  br i1 %31, label %34, label %37

32:                                               ; preds = %29
  %33 = call zeroext i1 @errstart(i32 noundef 21, ptr noundef null)
  br i1 %33, label %34, label %37

34:                                               ; preds = %32, %30
  %35 = load i32, ptr %3, align 4
  %36 = call i32 (ptr, ...) @errmsg_internal(ptr noundef @.str.78, i32 noundef %35)
  call void @errfinish(ptr noundef @.str.14, i32 noundef 8653, ptr noundef @__func__.get_sync_bit)
  br label %37

37:                                               ; preds = %34, %32, %30
  unreachable

38:                                               ; No predecessors!
  br label %39

39:                                               ; preds = %38
  store i32 0, ptr %2, align 4
  store i32 1, ptr %5, align 4
  br label %40

40:                                               ; preds = %39, %25, %22, %20, %16
  call void @llvm.lifetime.end.p0(i64 4, ptr %4) #16
  %41 = load i32, ptr %2, align 4
  ret i32 %41
}

; Function Attrs: nounwind uwtable
define dso_local i32 @XLogFileInit(i64 noundef %0, i32 noundef %1) #0 {
  %3 = alloca i32, align 4
  %4 = alloca i64, align 8
  %5 = alloca i32, align 4
  %6 = alloca i8, align 1
  %7 = alloca [1024 x i8], align 16
  %8 = alloca i32, align 4
  %9 = alloca i32, align 4
  store i64 %0, ptr %4, align 8
  store i32 %1, ptr %5, align 4
  call void @llvm.lifetime.start.p0(i64 1, ptr %6) #16
  call void @llvm.lifetime.start.p0(i64 1024, ptr %7) #16
  call void @llvm.lifetime.start.p0(i64 4, ptr %8) #16
  %10 = load i64, ptr %4, align 8
  %11 = load i32, ptr %5, align 4
  %12 = getelementptr inbounds [1024 x i8], ptr %7, i64 0, i64 0
  %13 = call i32 @XLogFileInitInternal(i64 noundef %10, i32 noundef %11, ptr noundef %6, ptr noundef %12)
  store i32 %13, ptr %8, align 4
  %14 = load i32, ptr %8, align 4
  %15 = icmp sge i32 %14, 0
  br i1 %15, label %16, label %18

16:                                               ; preds = %2
  %17 = load i32, ptr %8, align 4
  store i32 %17, ptr %3, align 4
  store i32 1, ptr %9, align 4
  br label %41

18:                                               ; preds = %2
  %19 = getelementptr inbounds [1024 x i8], ptr %7, i64 0, i64 0
  %20 = load i32, ptr @wal_sync_method, align 4
  %21 = call i32 @get_sync_bit(i32 noundef %20)
  %22 = or i32 524290, %21
  %23 = call i32 @BasicOpenFile(ptr noundef %19, i32 noundef %22)
  store i32 %23, ptr %8, align 4
  %24 = load i32, ptr %8, align 4
  %25 = icmp slt i32 %24, 0
  br i1 %25, label %26, label %39

26:                                               ; preds = %18
  br label %27

27:                                               ; preds = %26
  br i1 true, label %28, label %30

28:                                               ; preds = %27
  %29 = call zeroext i1 @errstart_cold(i32 noundef 21, ptr noundef null) #17
  br i1 %29, label %32, label %36

30:                                               ; preds = %27
  %31 = call zeroext i1 @errstart(i32 noundef 21, ptr noundef null)
  br i1 %31, label %32, label %36

32:                                               ; preds = %30, %28
  %33 = call i32 @errcode_for_file_access()
  %34 = getelementptr inbounds [1024 x i8], ptr %7, i64 0, i64 0
  %35 = call i32 (ptr, ...) @errmsg(ptr noundef @.str.20, ptr noundef %34)
  call void @errfinish(ptr noundef @.str.14, i32 noundef 3419, ptr noundef @__func__.XLogFileInit)
  br label %36

36:                                               ; preds = %32, %30, %28
  unreachable

37:                                               ; No predecessors!
  br label %38

38:                                               ; preds = %37
  br label %39

39:                                               ; preds = %38, %18
  %40 = load i32, ptr %8, align 4
  store i32 %40, ptr %3, align 4
  store i32 1, ptr %9, align 4
  br label %41

41:                                               ; preds = %39, %16
  call void @llvm.lifetime.end.p0(i64 4, ptr %8) #16
  call void @llvm.lifetime.end.p0(i64 1024, ptr %7) #16
  call void @llvm.lifetime.end.p0(i64 1, ptr %6) #16
  %42 = load i32, ptr %3, align 4
  ret i32 %42
}