; Function Attrs: nounwind uwtable
define dso_local range(i32 0, -2147483648) i32 @XLogFileInit(i64 noundef %0, i32 noundef %1) local_unnamed_addr #0 {
  %3 = alloca i8, align 1
  %4 = alloca [1024 x i8], align 16
  call void @llvm.lifetime.start.p0(i64 1, ptr nonnull %3) #26
  call void @llvm.lifetime.start.p0(i64 1024, ptr nonnull %4) #26
  %5 = call fastcc i32 @XLogFileInitInternal(i64 noundef %0, i32 noundef %1, ptr noundef %3, ptr noundef %4)
  %6 = icmp sgt i32 %5, -1
  br i1 %6, label %31, label %7

7:                                                ; preds = %2
  %8 = load i32, ptr @wal_sync_method, align 4
  %9 = load i32, ptr @io_direct_flags, align 4
  %10 = and i32 %9, 2
  %11 = icmp eq i32 %10, 0
  %12 = load i32, ptr @MyBackendType, align 4
  %13 = icmp eq i32 %12, 13
  %or.cond.i = select i1 %11, i1 true, i1 %13
  %spec.store.select.i = select i1 %or.cond.i, i32 0, i32 16384
  %14 = load i8, ptr @enableFsync, align 1, !range !4, !noundef !5
  %15 = trunc nuw i8 %14 to i1
  br i1 %15, label %16, label %get_sync_bit.exit

16:                                               ; preds = %7
  switch i32 %8, label %21 [
    i32 0, label %get_sync_bit.exit
    i32 3, label %get_sync_bit.exit
    i32 1, label %get_sync_bit.exit
    i32 2, label %17
    i32 4, label %19
  ]

17:                                               ; preds = %16
  %18 = or disjoint i32 %spec.store.select.i, 1052672
  br label %get_sync_bit.exit

19:                                               ; preds = %16
  %20 = or disjoint i32 %spec.store.select.i, 4096
  br label %get_sync_bit.exit

21:                                               ; preds = %16
  %22 = call zeroext i1 @errstart_cold(i32 noundef 21, ptr noundef null) #27
  call void @llvm.assume(i1 %22)
  %23 = call i32 (ptr, ...) @errmsg_internal(ptr noundef nonnull @.str.78, i32 noundef %8) #26
  call void @errfinish(ptr noundef nonnull @.str.14, i32 noundef 8653, ptr noundef nonnull @__func__.get_sync_bit) #26
  unreachable

get_sync_bit.exit:                                ; preds = %7, %16, %16, %16, %17, %19
  %.0.i = phi i32 [ %20, %19 ], [ %18, %17 ], [ %spec.store.select.i, %7 ], [ %spec.store.select.i, %16 ], [ %spec.store.select.i, %16 ], [ %spec.store.select.i, %16 ]
  %24 = or i32 %.0.i, 524290
  %25 = call i32 @BasicOpenFile(ptr noundef nonnull %4, i32 noundef %24) #26
  %26 = icmp slt i32 %25, 0
  br i1 %26, label %27, label %31

27:                                               ; preds = %get_sync_bit.exit
  %28 = call zeroext i1 @errstart_cold(i32 noundef 21, ptr noundef null) #27
  call void @llvm.assume(i1 %28)
  %29 = call i32 @errcode_for_file_access() #26
  %30 = call i32 (ptr, ...) @errmsg(ptr noundef nonnull @.str.20, ptr noundef nonnull %4) #26
  call void @errfinish(ptr noundef nonnull @.str.14, i32 noundef 3419, ptr noundef nonnull @__func__.XLogFileInit) #26
  unreachable

31:                                               ; preds = %get_sync_bit.exit, %2
  %.0 = phi i32 [ %5, %2 ], [ %25, %get_sync_bit.exit ]
  call void @llvm.lifetime.end.p0(i64 1024, ptr nonnull %4) #26
  call void @llvm.lifetime.end.p0(i64 1, ptr nonnull %3) #26
  ret i32 %.0
}